target datalayout = "e-m:e-p270:32:32-p271:32:32-p272:64:64-i64:64-i128:128-f80:128-n8:16:32:64-S128"
target triple = "x86_64-pc-linux-gnu"

%"struct.OpenImageIO::v3_1_0::TypeDesc" = type { i8, i8, i8, i8, i32 }
%"class.std::__cxx11::basic_string" = type { %"struct.std::__cxx11::basic_string<char>::_Alloc_hider", i64, %union.anon.0 }
%"struct.std::__cxx11::basic_string<char>::_Alloc_hider" = type { ptr }
%union.anon.0 = type { i64, [8 x i8] }
%"class.OpenImageIO::v3_1_0::ImageSpec" = type { i32, i32, i32, i32, i32, i32, i32, i32, i32, i32, i32, i32, i32, i32, i32, i32, %"struct.OpenImageIO::v3_1_0::TypeDesc", %"class.std::vector", %"class.std::vector.4", i32, i32, i8, %"class.OpenImageIO::v3_1_0::ParamValueList" }
%"class.std::vector" = type { %"struct.std::_Vector_base" }
%"struct.std::_Vector_base" = type { %"struct.std::_Vector_base<OpenImageIO::v3_1_0::TypeDesc, std::allocator<OpenImageIO::v3_1_0::TypeDesc>>::_Vector_impl" }
%"struct.std::_Vector_base<OpenImageIO::v3_1_0::TypeDesc, std::allocator<OpenImageIO::v3_1_0::TypeDesc>>::_Vector_impl" = type { %"struct.std::_Vector_base<OpenImageIO::v3_1_0::TypeDesc, std::allocator<OpenImageIO::v3_1_0::TypeDesc>>::_Vector_impl_data" }
%"struct.std::_Vector_base<OpenImageIO::v3_1_0::TypeDesc, std::allocator<OpenImageIO::v3_1_0::TypeDesc>>::_Vector_impl_data" = type { ptr, ptr, ptr }
%"class.std::vector.4" = type { %"struct.std::_Vector_base.5" }
%"struct.std::_Vector_base.5" = type { %"struct.std::_Vector_base<std::__cxx11::basic_string<char>, std::allocator<std::__cxx11::basic_string<char>>>::_Vector_impl" }
%"struct.std::_Vector_base<std::__cxx11::basic_string<char>, std::allocator<std::__cxx11::basic_string<char>>>::_Vector_impl" = type { %"struct.std::_Vector_base<std::__cxx11::basic_string<char>, std::allocator<std::__cxx11::basic_string<char>>>::_Vector_impl_data" }
%"struct.std::_Vector_base<std::__cxx11::basic_string<char>, std::allocator<std::__cxx11::basic_string<char>>>::_Vector_impl_data" = type { ptr, ptr, ptr }
%"class.OpenImageIO::v3_1_0::ParamValueList" = type { %"class.std::vector.9" }
%"class.std::vector.9" = type { %"struct.std::_Vector_base.10" }
%"struct.std::_Vector_base.10" = type { %"struct.std::_Vector_base<OpenImageIO::v3_1_0::ParamValue, std::allocator<OpenImageIO::v3_1_0::ParamValue>>::_Vector_impl" }
%"struct.std::_Vector_base<OpenImageIO::v3_1_0::ParamValue, std::allocator<OpenImageIO::v3_1_0::ParamValue>>::_Vector_impl" = type { %"struct.std::_Vector_base<OpenImageIO::v3_1_0::ParamValue, std::allocator<OpenImageIO::v3_1_0::ParamValue>>::_Vector_impl_data" }
%"struct.std::_Vector_base<OpenImageIO::v3_1_0::ParamValue, std::allocator<OpenImageIO::v3_1_0::ParamValue>>::_Vector_impl_data" = type { ptr, ptr, ptr }
%struct.WebPData = type { ptr, i64 }
%"class.OpenImageIO::v3_1_0::webp_pvt::WebpInput" = type { %"class.OpenImageIO::v3_1_0::ImageInput", %"class.std::__cxx11::basic_string", %"class.std::unique_ptr.16", %"class.std::unique_ptr.16", i64, i64, i32, i32, ptr, %struct.WebPIterator, i32, i32 }
%"class.OpenImageIO::v3_1_0::ImageInput" = type { ptr, %"class.OpenImageIO::v3_1_0::ImageSpec", %"class.std::unique_ptr" }
%"class.std::unique_ptr" = type { %"struct.std::__uniq_ptr_data" }
%"struct.std::__uniq_ptr_data" = type { %"class.std::__uniq_ptr_impl" }
%"class.std::__uniq_ptr_impl" = type { %"class.std::tuple" }
%"class.std::tuple" = type { %"struct.std::_Tuple_impl" }
%"struct.std::_Tuple_impl" = type { %"struct.std::_Tuple_impl.14", %"struct.std::_Head_base.15" }
%"struct.std::_Tuple_impl.14" = type { %"struct.std::_Head_base" }
%"struct.std::_Head_base" = type { ptr }
%"struct.std::_Head_base.15" = type { ptr }
%"class.std::unique_ptr.16" = type { %"struct.std::__uniq_ptr_data.17" }
%"struct.std::__uniq_ptr_data.17" = type { %"class.std::__uniq_ptr_impl.18" }
%"class.std::__uniq_ptr_impl.18" = type { %"class.std::tuple.19" }
%"class.std::tuple.19" = type { %"struct.std::_Tuple_impl.20" }
%"struct.std::_Tuple_impl.20" = type { %"struct.std::_Head_base.23" }
%"struct.std::_Head_base.23" = type { ptr }
%struct.WebPIterator = type { i32, i32, i32, i32, i32, i32, i32, i32, i32, %struct.WebPData, i32, i32, [2 x i32], ptr }

; Function Attrs: mustprogress uwtable
define linkonce_odr hidden noundef zeroext i1 @_ZN11OpenImageIO6v3_1_08webp_pvt9WebpInput16iter_to_subimageEi(ptr noundef nonnull align 8 dereferenceable(352) %0, i32 noundef %1) #6 comdat align 2 {
  %3 = alloca i1, align 1
  %4 = alloca ptr, align 8
  %5 = alloca i32, align 4
  store ptr %0, ptr %4, align 8, !tbaa !8
  store i32 %1, ptr %5, align 4, !tbaa !72
  %6 = load ptr, ptr %4, align 8
  %7 = getelementptr inbounds nuw %"class.OpenImageIO::v3_1_0::webp_pvt::WebpInput", ptr %6, i32 0, i32 8
  %8 = load ptr, ptr %7, align 8, !tbaa !71
  %9 = load i32, ptr %5, align 4, !tbaa !72
  %10 = add nsw i32 %9, 1
  %11 = getelementptr inbounds nuw %"class.OpenImageIO::v3_1_0::webp_pvt::WebpInput", ptr %6, i32 0, i32 9
  %12 = call i32 @WebPDemuxGetFrame(ptr noundef %8, i32 noundef %10, ptr noundef %11)
  %13 = icmp ne i32 %12, 0
  br i1 %13, label %14, label %17

14:                                               ; preds = %2
  %15 = load i32, ptr %5, align 4, !tbaa !72
  %16 = getelementptr inbounds nuw %"class.OpenImageIO::v3_1_0::webp_pvt::WebpInput", ptr %6, i32 0, i32 10
  store i32 %15, ptr %16, align 8, !tbaa !106
  store i1 true, ptr %3, align 1
  br label %18

17:                                               ; preds = %2
  store i1 false, ptr %3, align 1
  br label %18

18:                                               ; preds = %17, %14
  %19 = load i1, ptr %3, align 1
  ret i1 %19
}

; Function Attrs: mustprogress uwtable
define hidden noundef zeroext i1 @_ZN11OpenImageIO6v3_1_08webp_pvt9WebpInput13read_subimageEib(ptr noundef nonnull align 8 dereferenceable(352) %0, i32 noundef %1, i1 noundef zeroext %2) #6 align 2 {
  %4 = alloca i1, align 1
  %5 = alloca ptr, align 8
  %6 = alloca i32, align 4
  %7 = alloca i8, align 1
  store ptr %0, ptr %5, align 8, !tbaa !8
  store i32 %1, ptr %6, align 4, !tbaa !72
  %8 = zext i1 %2 to i8
  store i8 %8, ptr %7, align 1, !tbaa !115
  %9 = load ptr, ptr %5, align 8
  %10 = getelementptr inbounds nuw %"class.OpenImageIO::v3_1_0::webp_pvt::WebpInput", ptr %9, i32 0, i32 10
  %11 = load i32, ptr %10, align 8, !tbaa !106
  %12 = load i32, ptr %6, align 4, !tbaa !72
  %13 = icmp eq i32 %11, %12
  br i1 %13, label %14, label %23

14:                                               ; preds = %3
  %15 = load i8, ptr %7, align 1, !tbaa !115, !range !116, !noundef !117
  %16 = trunc i8 %15 to i1
  br i1 %16, label %17, label %22

17:                                               ; preds = %14
  %18 = getelementptr inbounds nuw %"class.OpenImageIO::v3_1_0::webp_pvt::WebpInput", ptr %9, i32 0, i32 11
  %19 = load i32, ptr %18, align 4, !tbaa !118
  %20 = load i32, ptr %6, align 4, !tbaa !72
  %21 = icmp eq i32 %19, %20
  br i1 %21, label %22, label %23

22:                                               ; preds = %17, %14
  store i1 true, ptr %4, align 1
  br label %76

23:                                               ; preds = %17, %3
  %24 = load i8, ptr %7, align 1, !tbaa !115, !range !116, !noundef !117
  %25 = trunc i8 %24 to i1
  br i1 %25, label %29, label %26

26:                                               ; preds = %23
  %27 = load i32, ptr %6, align 4, !tbaa !72
  %28 = call noundef zeroext i1 @_ZN11OpenImageIO6v3_1_08webp_pvt9WebpInput16iter_to_subimageEi(ptr noundef nonnull align 8 dereferenceable(352) %9, i32 noundef %27)
  store i1 %28, ptr %4, align 1
  br label %76

29:                                               ; preds = %23
  %30 = getelementptr inbounds nuw %"class.OpenImageIO::v3_1_0::webp_pvt::WebpInput", ptr %9, i32 0, i32 10
  %31 = load i32, ptr %30, align 8, !tbaa !106
  %32 = load i32, ptr %6, align 4, !tbaa !72
  %33 = sub nsw i32 %32, 1
  %34 = icmp eq i32 %31, %33
  br i1 %34, label %35, label %46

35:                                               ; preds = %29
  %36 = getelementptr inbounds nuw %"class.OpenImageIO::v3_1_0::webp_pvt::WebpInput", ptr %9, i32 0, i32 11
  %37 = load i32, ptr %36, align 4, !tbaa !118
  %38 = load i32, ptr %6, align 4, !tbaa !72
  %39 = sub nsw i32 %38, 1
  %40 = icmp eq i32 %37, %39
  br i1 %40, label %41, label %46

41:                                               ; preds = %35
  %42 = load i32, ptr %6, align 4, !tbaa !72
  %43 = call noundef zeroext i1 @_ZN11OpenImageIO6v3_1_08webp_pvt9WebpInput16iter_to_subimageEi(ptr noundef nonnull align 8 dereferenceable(352) %9, i32 noundef %42)
  br i1 %43, label %45, label %44

44:                                               ; preds = %41
  store i1 false, ptr %4, align 1
  br label %76

45:                                               ; preds = %41
  br label %46

46:                                               ; preds = %45, %35, %29
  %47 = getelementptr inbounds nuw %"class.OpenImageIO::v3_1_0::webp_pvt::WebpInput", ptr %9, i32 0, i32 10
  %48 = load i32, ptr %47, align 8, !tbaa !106
  %49 = load i32, ptr %6, align 4, !tbaa !72
  %50 = icmp eq i32 %48, %49
  br i1 %50, label %51, label %54

51:                                               ; preds = %46
  %52 = call noundef zeroext i1 @_ZN11OpenImageIO6v3_1_08webp_pvt9WebpInput21read_current_subimageEv(ptr noundef nonnull align 8 dereferenceable(352) %9)
  br i1 %52, label %53, label %54

53:                                               ; preds = %51
  store i1 true, ptr %4, align 1
  br label %76

54:                                               ; preds = %51, %46
  %55 = getelementptr inbounds nuw %"class.OpenImageIO::v3_1_0::webp_pvt::WebpInput", ptr %9, i32 0, i32 10
  store i32 -1, ptr %55, align 8, !tbaa !106
  %56 = getelementptr inbounds nuw %"class.OpenImageIO::v3_1_0::webp_pvt::WebpInput", ptr %9, i32 0, i32 11
  store i32 -1, ptr %56, align 4, !tbaa !118
  br label %57

57:                                               ; preds = %74, %54
  %58 = getelementptr inbounds nuw %"class.OpenImageIO::v3_1_0::webp_pvt::WebpInput", ptr %9, i32 0, i32 10
  %59 = load i32, ptr %58, align 8, !tbaa !106
  %60 = load i32, ptr %6, align 4, !tbaa !72
  %61 = icmp slt i32 %59, %60
  br i1 %61, label %62, label %75

62:                                               ; preds = %57
  %63 = getelementptr inbounds nuw %"class.OpenImageIO::v3_1_0::webp_pvt::WebpInput", ptr %9, i32 0, i32 10
  %64 = load i32, ptr %63, align 8, !tbaa !106
  %65 = add nsw i32 %64, 1
  %66 = call noundef zeroext i1 @_ZN11OpenImageIO6v3_1_08webp_pvt9WebpInput16iter_to_subimageEi(ptr noundef nonnull align 8 dereferenceable(352) %9, i32 noundef %65)
  br i1 %66, label %67, label %73

67:                                               ; preds = %62
  %68 = call noundef zeroext i1 @_ZN11OpenImageIO6v3_1_08webp_pvt9WebpInput21read_current_subimageEv(ptr noundef nonnull align 8 dereferenceable(352) %9)
  br i1 %68, label %69, label %73

69:                                               ; preds = %67
  %70 = getelementptr inbounds nuw %"class.OpenImageIO::v3_1_0::webp_pvt::WebpInput", ptr %9, i32 0, i32 10
  %71 = load i32, ptr %70, align 8, !tbaa !106
  %72 = getelementptr inbounds nuw %"class.OpenImageIO::v3_1_0::webp_pvt::WebpInput", ptr %9, i32 0, i32 11
  store i32 %71, ptr %72, align 4, !tbaa !118
  br label %74

73:                                               ; preds = %67, %62
  store i1 false, ptr %4, align 1
  br label %76

74:                                               ; preds = %69
  br label %57, !llvm.loop !119

75:                                               ; preds = %57
  store i1 true, ptr %4, align 1
  br label %76

76:                                               ; preds = %75, %73, %53, %44, %26, %22
  %77 = load i1, ptr %4, align 1
  ret i1 %77
}