; Function Attrs: mustprogress uwtable
define hidden noundef zeroext i1 @_ZN11OpenImageIO6v3_1_08webp_pvt9WebpInput13read_subimageEib(ptr noundef nonnull align 8 dereferenceable(352) %0, i32 noundef %1, i1 noundef zeroext %2) local_unnamed_addr #5 align 2 {
  %4 = getelementptr inbounds nuw i8, ptr %0, i64 344
  %5 = load i32, ptr %4, align 8, !tbaa !80
  %6 = icmp eq i32 %5, %1
  br i1 %6, label %7, label %11

7:                                                ; preds = %3
  %8 = getelementptr inbounds nuw i8, ptr %0, i64 348
  %9 = load i32, ptr %8, align 4
  %10 = icmp ne i32 %9, %1
  %or.cond.not = select i1 %2, i1 %10, i1 false
  br i1 %or.cond.not, label %11, label %_ZN11OpenImageIO6v3_1_08webp_pvt9WebpInput16iter_to_subimageEi.exit

11:                                               ; preds = %7, %3
  br i1 %2, label %19, label %12

12:                                               ; preds = %11
  %13 = getelementptr inbounds nuw i8, ptr %0, i64 256
  %14 = load ptr, ptr %13, align 8, !tbaa !78
  %15 = add nsw i32 %1, 1
  %16 = getelementptr inbounds nuw i8, ptr %0, i64 264
  %17 = tail call i32 @WebPDemuxGetFrame(ptr noundef %14, i32 noundef %15, ptr noundef nonnull %16)
  %.not.i.not = icmp eq i32 %17, 0
  br i1 %.not.i.not, label %_ZN11OpenImageIO6v3_1_08webp_pvt9WebpInput16iter_to_subimageEi.exit, label %18

18:                                               ; preds = %12
  store i32 %1, ptr %4, align 8, !tbaa !80
  br label %_ZN11OpenImageIO6v3_1_08webp_pvt9WebpInput16iter_to_subimageEi.exit

19:                                               ; preds = %11
  %20 = add nsw i32 %1, -1
  %21 = icmp eq i32 %5, %20
  %22 = getelementptr inbounds nuw i8, ptr %0, i64 348
  %23 = load i32, ptr %22, align 4
  %24 = icmp eq i32 %23, %20
  %or.cond18 = select i1 %21, i1 %24, i1 false
  br i1 %or.cond18, label %25, label %31

25:                                               ; preds = %19
  %26 = getelementptr inbounds nuw i8, ptr %0, i64 256
  %27 = load ptr, ptr %26, align 8, !tbaa !78
  %28 = add nsw i32 %1, 1
  %29 = getelementptr inbounds nuw i8, ptr %0, i64 264
  %30 = tail call i32 @WebPDemuxGetFrame(ptr noundef %27, i32 noundef %28, ptr noundef nonnull %29)
  %.not.i19.not = icmp eq i32 %30, 0
  br i1 %.not.i19.not, label %_ZN11OpenImageIO6v3_1_08webp_pvt9WebpInput16iter_to_subimageEi.exit, label %.thread

.thread:                                          ; preds = %25
  store i32 %1, ptr %4, align 8, !tbaa !80
  br label %33

31:                                               ; preds = %19
  %32 = icmp eq i32 %5, %1
  br i1 %32, label %33, label %35

33:                                               ; preds = %.thread, %31
  %34 = tail call noundef zeroext i1 @_ZN11OpenImageIO6v3_1_08webp_pvt9WebpInput21read_current_subimageEv(ptr noundef nonnull align 8 dereferenceable(352) %0)
  br i1 %34, label %_ZN11OpenImageIO6v3_1_08webp_pvt9WebpInput16iter_to_subimageEi.exit, label %35

35:                                               ; preds = %33, %31
  store i32 -1, ptr %4, align 8, !tbaa !80
  %36 = getelementptr inbounds nuw i8, ptr %0, i64 256
  store i32 -1, ptr %22, align 4, !tbaa !97
  %37 = icmp sgt i32 %1, -1
  br i1 %37, label %.lr.ph, label %_ZN11OpenImageIO6v3_1_08webp_pvt9WebpInput16iter_to_subimageEi.exit

.lr.ph:                                           ; preds = %35
  %38 = getelementptr inbounds nuw i8, ptr %0, i64 264
  br label %39

39:                                               ; preds = %.lr.ph, %47
  %40 = phi i32 [ -1, %.lr.ph ], [ %48, %47 ]
  %41 = load ptr, ptr %36, align 8, !tbaa !78
  %42 = add nsw i32 %40, 2
  %43 = tail call i32 @WebPDemuxGetFrame(ptr noundef %41, i32 noundef %42, ptr noundef nonnull %38)
  %.not.i21.not = icmp eq i32 %43, 0
  br i1 %.not.i21.not, label %_ZN11OpenImageIO6v3_1_08webp_pvt9WebpInput16iter_to_subimageEi.exit, label %44

44:                                               ; preds = %39
  %45 = add nsw i32 %40, 1
  store i32 %45, ptr %4, align 8, !tbaa !80
  %46 = tail call noundef zeroext i1 @_ZN11OpenImageIO6v3_1_08webp_pvt9WebpInput21read_current_subimageEv(ptr noundef nonnull align 8 dereferenceable(352) %0)
  br i1 %46, label %47, label %_ZN11OpenImageIO6v3_1_08webp_pvt9WebpInput16iter_to_subimageEi.exit

47:                                               ; preds = %44
  %48 = load i32, ptr %4, align 8, !tbaa !80
  store i32 %48, ptr %22, align 4, !tbaa !97
  %49 = icmp slt i32 %48, %1
  br i1 %49, label %39, label %_ZN11OpenImageIO6v3_1_08webp_pvt9WebpInput16iter_to_subimageEi.exit, !llvm.loop !98

_ZN11OpenImageIO6v3_1_08webp_pvt9WebpInput16iter_to_subimageEi.exit: ; preds = %44, %47, %39, %35, %25, %18, %12, %33, %7
  %.0 = phi i1 [ true, %7 ], [ true, %33 ], [ false, %12 ], [ true, %18 ], [ false, %25 ], [ true, %35 ], [ false, %44 ], [ true, %47 ], [ false, %39 ]
  ret i1 %.0
}